target datalayout = "e-m:e-p270:32:32-p271:32:32-p272:64:64-i64:64-i128:128-f80:128-n8:16:32:64-S128"
target triple = "x86_64-pc-linux-gnu"

%"struct.faiss::MultiIndexQuantizer" = type { %"struct.faiss::Index.base", %"struct.faiss::ProductQuantizer" }
%"struct.faiss::Index.base" = type <{ ptr, i32, [4 x i8], i64, i8, i8, [2 x i8], i32, float }>
%"struct.faiss::ProductQuantizer" = type { %"struct.faiss::Quantizer", i64, i64, i64, i64, i8, i32, %"struct.faiss::ClusteringParameters", ptr, %"class.std::vector.0", %"class.std::vector.0", %"class.std::vector.0", %"class.std::vector.0" }
%"struct.faiss::Quantizer" = type { ptr, i64, i64 }
%"struct.faiss::ClusteringParameters" = type <{ i32, i32, i8, i8, i8, i8, i8, [3 x i8], i32, i32, i32, [4 x i8], i64, i8, i8, [6 x i8] }>
%"class.std::vector.0" = type { %"struct.std::_Vector_base.1" }
%"struct.std::_Vector_base.1" = type { %"struct.std::_Vector_base<float, std::allocator<float>>::_Vector_impl" }
%"struct.std::_Vector_base<float, std::allocator<float>>::_Vector_impl" = type { %"struct.std::_Vector_base<float, std::allocator<float>>::_Vector_impl_data" }
%"struct.std::_Vector_base<float, std::allocator<float>>::_Vector_impl_data" = type { ptr, ptr, ptr }

; Function Attrs: mustprogress nounwind uwtable
define linkonce_odr noundef nonnull align 4 dereferenceable(4) ptr @_ZNKSt6vectorIfSaIfEEixEm(ptr noundef nonnull align 8 dereferenceable(24) %0, i64 noundef %1) #3 comdat align 2 {
  %3 = alloca ptr, align 8
  %4 = alloca i64, align 8
  store ptr %0, ptr %3, align 8, !tbaa !123
  store i64 %1, ptr %4, align 8, !tbaa !11
  %5 = load ptr, ptr %3, align 8
  %6 = getelementptr inbounds nuw %"struct.std::_Vector_base.1", ptr %5, i32 0, i32 0
  %7 = getelementptr inbounds nuw %"struct.std::_Vector_base<float, std::allocator<float>>::_Vector_impl_data", ptr %6, i32 0, i32 0
  %8 = load ptr, ptr %7, align 8, !tbaa !125
  %9 = load i64, ptr %4, align 8, !tbaa !11
  %10 = getelementptr inbounds nuw float, ptr %8, i64 %9
  ret ptr %10
}

; Function Attrs: mustprogress nounwind uwtable
define linkonce_odr noundef ptr @_ZNK5faiss16ProductQuantizer13get_centroidsEmm(ptr noundef nonnull align 8 dereferenceable(216) %0, i64 noundef %1, i64 noundef %2) #3 comdat align 2 {
  %4 = alloca ptr, align 8
  %5 = alloca i64, align 8
  %6 = alloca i64, align 8
  store ptr %0, ptr %4, align 8, !tbaa !121
  store i64 %1, ptr %5, align 8, !tbaa !11
  store i64 %2, ptr %6, align 8, !tbaa !11
  %7 = load ptr, ptr %4, align 8
  %8 = getelementptr inbounds nuw %"struct.faiss::ProductQuantizer", ptr %7, i32 0, i32 9
  %9 = load i64, ptr %5, align 8, !tbaa !11
  %10 = getelementptr inbounds nuw %"struct.faiss::ProductQuantizer", ptr %7, i32 0, i32 4
  %11 = load i64, ptr %10, align 8, !tbaa !154
  %12 = mul i64 %9, %11
  %13 = load i64, ptr %6, align 8, !tbaa !11
  %14 = add i64 %12, %13
  %15 = getelementptr inbounds nuw %"struct.faiss::ProductQuantizer", ptr %7, i32 0, i32 3
  %16 = load i64, ptr %15, align 8, !tbaa !543
  %17 = mul i64 %14, %16
  %18 = call noundef nonnull align 4 dereferenceable(4) ptr @_ZNKSt6vectorIfSaIfEEixEm(ptr noundef nonnull align 8 dereferenceable(24) %8, i64 noundef %17) #20
  ret ptr %18
}

; Function Attrs: mustprogress uwtable
define void @_ZNK5faiss19MultiIndexQuantizer11reconstructElPf(ptr noundef nonnull align 8 dereferenceable(256) %0, i64 noundef %1, ptr noundef %2) unnamed_addr #1 align 2 {
  %4 = alloca ptr, align 8
  %5 = alloca i64, align 8
  %6 = alloca ptr, align 8
  %7 = alloca i64, align 8
  %8 = alloca i32, align 4
  %9 = alloca i64, align 8
  store ptr %0, ptr %4, align 8, !tbaa !4
  store i64 %1, ptr %5, align 8, !tbaa !11
  store ptr %2, ptr %6, align 8, !tbaa !13
  %10 = load ptr, ptr %4, align 8
  call void @llvm.lifetime.start.p0(i64 8, ptr %7) #20
  %11 = load i64, ptr %5, align 8, !tbaa !11
  store i64 %11, ptr %7, align 8, !tbaa !11
  call void @llvm.lifetime.start.p0(i64 4, ptr %8) #20
  store i32 0, ptr %8, align 4, !tbaa !36
  br label %12

12:                                               ; preds = %48, %3
  %13 = load i32, ptr %8, align 4, !tbaa !36
  %14 = sext i32 %13 to i64
  %15 = getelementptr inbounds nuw %"struct.faiss::MultiIndexQuantizer", ptr %10, i32 0, i32 1
  %16 = getelementptr inbounds nuw %"struct.faiss::ProductQuantizer", ptr %15, i32 0, i32 1
  %17 = load i64, ptr %16, align 8, !tbaa !37
  %18 = icmp ult i64 %14, %17
  br i1 %18, label %20, label %19

19:                                               ; preds = %12
  call void @llvm.lifetime.end.p0(i64 4, ptr %8) #20
  br label %51

20:                                               ; preds = %12
  call void @llvm.lifetime.start.p0(i64 8, ptr %9) #20
  %21 = load i64, ptr %7, align 8, !tbaa !11
  %22 = getelementptr inbounds nuw %"struct.faiss::MultiIndexQuantizer", ptr %10, i32 0, i32 1
  %23 = getelementptr inbounds nuw %"struct.faiss::ProductQuantizer", ptr %22, i32 0, i32 2
  %24 = load i64, ptr %23, align 8, !tbaa !47
  %25 = shl i64 1, %24
  %26 = sub nsw i64 %25, 1
  %27 = and i64 %21, %26
  store i64 %27, ptr %9, align 8, !tbaa !11
  %28 = getelementptr inbounds nuw %"struct.faiss::MultiIndexQuantizer", ptr %10, i32 0, i32 1
  %29 = getelementptr inbounds nuw %"struct.faiss::ProductQuantizer", ptr %28, i32 0, i32 2
  %30 = load i64, ptr %29, align 8, !tbaa !47
  %31 = load i64, ptr %7, align 8, !tbaa !11
  %32 = ashr i64 %31, %30
  store i64 %32, ptr %7, align 8, !tbaa !11
  %33 = load ptr, ptr %6, align 8, !tbaa !13
  %34 = getelementptr inbounds nuw %"struct.faiss::MultiIndexQuantizer", ptr %10, i32 0, i32 1
  %35 = load i32, ptr %8, align 4, !tbaa !36
  %36 = sext i32 %35 to i64
  %37 = load i64, ptr %9, align 8, !tbaa !11
  %38 = call noundef ptr @_ZNK5faiss16ProductQuantizer13get_centroidsEmm(ptr noundef nonnull align 8 dereferenceable(216) %34, i64 noundef %36, i64 noundef %37)
  %39 = getelementptr inbounds nuw %"struct.faiss::MultiIndexQuantizer", ptr %10, i32 0, i32 1
  %40 = getelementptr inbounds nuw %"struct.faiss::ProductQuantizer", ptr %39, i32 0, i32 3
  %41 = load i64, ptr %40, align 8, !tbaa !48
  %42 = mul i64 4, %41
  call void @llvm.memcpy.p0.p0.i64(ptr align 4 %33, ptr align 4 %38, i64 %42, i1 false)
  %43 = getelementptr inbounds nuw %"struct.faiss::MultiIndexQuantizer", ptr %10, i32 0, i32 1
  %44 = getelementptr inbounds nuw %"struct.faiss::ProductQuantizer", ptr %43, i32 0, i32 3
  %45 = load i64, ptr %44, align 8, !tbaa !48
  %46 = load ptr, ptr %6, align 8, !tbaa !13
  %47 = getelementptr inbounds nuw float, ptr %46, i64 %45
  store ptr %47, ptr %6, align 8, !tbaa !13
  call void @llvm.lifetime.end.p0(i64 8, ptr %9) #20
  br label %48

48:                                               ; preds = %20
  %49 = load i32, ptr %8, align 4, !tbaa !36
  %50 = add nsw i32 %49, 1
  store i32 %50, ptr %8, align 4, !tbaa !36
  br label %12, !llvm.loop !49

51:                                               ; preds = %19
  call void @llvm.lifetime.end.p0(i64 8, ptr %7) #20
  ret void
}