; Function Attrs: mustprogress nofree norecurse nosync nounwind memory(readwrite, inaccessiblemem: none) uwtable
define void @_ZNK5faiss19MultiIndexQuantizer11reconstructElPf(ptr noundef nonnull readonly align 8 captures(none) dereferenceable(256) %0, i64 noundef %1, ptr noundef writeonly captures(none) %2) unnamed_addr #4 align 2 {
  %4 = getelementptr inbounds nuw i8, ptr %0, i64 64
  %5 = load i64, ptr %4, align 8, !tbaa !34
  %.not = icmp eq i64 %5, 0
  br i1 %.not, label %._crit_edge, label %.lr.ph

.lr.ph:                                           ; preds = %3
  %6 = getelementptr inbounds nuw i8, ptr %0, i64 72
  %7 = getelementptr inbounds nuw i8, ptr %0, i64 160
  %8 = getelementptr inbounds nuw i8, ptr %0, i64 88
  %9 = getelementptr inbounds nuw i8, ptr %0, i64 80
  %.pre = load i64, ptr %9, align 8, !tbaa !52
  br label %10

._crit_edge:                                      ; preds = %10, %3
  ret void

10:                                               ; preds = %.lr.ph, %10
  %11 = phi i64 [ %.pre, %.lr.ph ], [ %23, %10 ]
  %indvars.iv = phi i64 [ 0, %.lr.ph ], [ %indvars.iv.next, %10 ]
  %.014 = phi ptr [ %2, %.lr.ph ], [ %24, %10 ]
  %.01012 = phi i64 [ %1, %.lr.ph ], [ %15, %10 ]
  %12 = load i64, ptr %6, align 8, !tbaa !53
  %notmask = shl nsw i64 -1, %12
  %13 = xor i64 %notmask, -1
  %14 = and i64 %.01012, %13
  %15 = ashr i64 %.01012, %12
  %16 = load i64, ptr %8, align 8, !tbaa !54
  %17 = mul i64 %16, %indvars.iv
  %18 = add i64 %17, %14
  %19 = mul i64 %18, %11
  %20 = load ptr, ptr %7, align 8, !tbaa !7
  %21 = getelementptr inbounds nuw float, ptr %20, i64 %19
  %22 = shl i64 %11, 2
  tail call void @llvm.memcpy.p0.p0.i64(ptr align 4 %.014, ptr align 4 %21, i64 %22, i1 false)
  %23 = load i64, ptr %9, align 8, !tbaa !55
  %24 = getelementptr inbounds nuw float, ptr %.014, i64 %23
  %indvars.iv.next = add nuw nsw i64 %indvars.iv, 1
  %25 = load i64, ptr %4, align 8, !tbaa !34
  %26 = icmp ugt i64 %25, %indvars.iv.next
  br i1 %26, label %10, label %._crit_edge, !llvm.loop !56
}